target datalayout = "e-m:e-p270:32:32-p271:32:32-p272:64:64-i64:64-i128:128-f80:128-n8:16:32:64-S128"
target triple = "x86_64-pc-linux-gnu"

%struct.SResource = type { ptr, i8, i8, i32, i32, i32, i32, i32, ptr, %struct.UString }
%struct.UString = type { ptr, i32, i32 }
%class.BinaryResource = type { %struct.SResource, i32, ptr, ptr }

; Function Attrs: mustprogress uwtable
define dso_local void @_ZN14BinaryResource11handleWriteEP14UNewDataMemoryPj(ptr noundef nonnull align 8 dereferenceable(80) %0, ptr noundef %1, ptr noundef %2) unnamed_addr #5 align 2 {
  %4 = alloca ptr, align 8
  %5 = alloca ptr, align 8
  %6 = alloca ptr, align 8
  %7 = alloca i32, align 4
  %8 = alloca i32, align 4
  store ptr %0, ptr %4, align 8, !tbaa !97
  store ptr %1, ptr %5, align 8, !tbaa !132
  store ptr %2, ptr %6, align 8, !tbaa !96
  %9 = load ptr, ptr %4, align 8
  call void @llvm.lifetime.start.p0(i64 4, ptr %7) #3
  store i32 0, ptr %7, align 4, !tbaa !23
  call void @llvm.lifetime.start.p0(i64 4, ptr %8) #3
  %10 = load ptr, ptr %6, align 8, !tbaa !96
  %11 = load i32, ptr %10, align 4, !tbaa !23
  %12 = zext i32 %11 to i64
  %13 = add i64 %12, 4
  %14 = trunc i64 %13 to i32
  store i32 %14, ptr %8, align 4, !tbaa !23
  %15 = load i32, ptr %8, align 4, !tbaa !23
  %16 = urem i32 %15, 16
  %17 = icmp ne i32 %16, 0
  br i1 %17, label %18, label %28

18:                                               ; preds = %3
  %19 = load i32, ptr %8, align 4, !tbaa !23
  %20 = urem i32 %19, 16
  %21 = sub i32 16, %20
  store i32 %21, ptr %7, align 4, !tbaa !23
  %22 = load ptr, ptr %5, align 8, !tbaa !132
  %23 = load i32, ptr %7, align 4, !tbaa !23
  call void @udata_writePadding(ptr noundef %22, i32 noundef %23)
  %24 = load i32, ptr %7, align 4, !tbaa !23
  %25 = load ptr, ptr %6, align 8, !tbaa !96
  %26 = load i32, ptr %25, align 4, !tbaa !23
  %27 = add i32 %26, %24
  store i32 %27, ptr %25, align 4, !tbaa !23
  br label %28

28:                                               ; preds = %18, %3
  %29 = load ptr, ptr %5, align 8, !tbaa !132
  %30 = getelementptr inbounds nuw %class.BinaryResource, ptr %9, i32 0, i32 1
  %31 = load i32, ptr %30, align 8, !tbaa !99
  call void @udata_write32(ptr noundef %29, i32 noundef %31)
  %32 = getelementptr inbounds nuw %class.BinaryResource, ptr %9, i32 0, i32 1
  %33 = load i32, ptr %32, align 8, !tbaa !99
  %34 = icmp ugt i32 %33, 0
  br i1 %34, label %35, label %41

35:                                               ; preds = %28
  %36 = load ptr, ptr %5, align 8, !tbaa !132
  %37 = getelementptr inbounds nuw %class.BinaryResource, ptr %9, i32 0, i32 2
  %38 = load ptr, ptr %37, align 8, !tbaa !101
  %39 = getelementptr inbounds nuw %class.BinaryResource, ptr %9, i32 0, i32 1
  %40 = load i32, ptr %39, align 8, !tbaa !99
  call void @udata_writeBlock(ptr noundef %36, ptr noundef %38, i32 noundef %40)
  br label %41

41:                                               ; preds = %35, %28
  %42 = getelementptr inbounds nuw %class.BinaryResource, ptr %9, i32 0, i32 1
  %43 = load i32, ptr %42, align 8, !tbaa !99
  %44 = add i32 4, %43
  %45 = load ptr, ptr %6, align 8, !tbaa !96
  %46 = load i32, ptr %45, align 4, !tbaa !23
  %47 = add i32 %46, %44
  store i32 %47, ptr %45, align 4, !tbaa !23
  call void @llvm.lifetime.end.p0(i64 4, ptr %8) #3
  call void @llvm.lifetime.end.p0(i64 4, ptr %7) #3
  ret void
}