; Function Attrs: mustprogress uwtable
define dso_local void @_ZN14BinaryResource11handleWriteEP14UNewDataMemoryPj(ptr noundef nonnull readonly align 8 captures(none) dereferenceable(80) %0, ptr noundef %1, ptr noundef captures(none) %2) unnamed_addr #7 align 2 {
  %4 = load i32, ptr %2, align 4, !tbaa !7
  %5 = and i32 %4, 15
  %.not = icmp eq i32 %5, 12
  br i1 %.not, label %12, label %6

6:                                                ; preds = %3
  %7 = add i32 %4, 4
  %8 = and i32 %7, 15
  %9 = sub nuw nsw i32 16, %8
  tail call void @udata_writePadding(ptr noundef %1, i32 noundef %9)
  %10 = load i32, ptr %2, align 4, !tbaa !7
  %11 = add i32 %10, %9
  store i32 %11, ptr %2, align 4, !tbaa !7
  br label %12

12:                                               ; preds = %6, %3
  %13 = getelementptr inbounds nuw i8, ptr %0, i64 56
  %14 = load i32, ptr %13, align 8, !tbaa !59
  tail call void @udata_write32(ptr noundef %1, i32 noundef %14)
  %15 = load i32, ptr %13, align 8, !tbaa !59
  %.not11 = icmp eq i32 %15, 0
  br i1 %.not11, label %20, label %16

16:                                               ; preds = %12
  %17 = getelementptr inbounds nuw i8, ptr %0, i64 64
  %18 = load ptr, ptr %17, align 8, !tbaa !62
  tail call void @udata_writeBlock(ptr noundef %1, ptr noundef %18, i32 noundef %15)
  %.pre = load i32, ptr %13, align 8, !tbaa !59
  %19 = add i32 %.pre, 4
  br label %20

20:                                               ; preds = %16, %12
  %21 = phi i32 [ %19, %16 ], [ 4, %12 ]
  %22 = load i32, ptr %2, align 4, !tbaa !7
  %23 = add i32 %21, %22
  store i32 %23, ptr %2, align 4, !tbaa !7
  ret void
}